(dp0
Vengine
p1
Vxelatex
p2
sVpackages
p3
c__builtin__
set
p4
((lp5
Vtikz
p6
aVocr
p7
aVgraphicx
p8
atp9
Rp10
sVfiles_with_guttermarks
p11
g4
((lp12
V/Users/digaspero/Documents/Didattica/Fondamenti_Gorizia/Esami/images/./omr_bubbles.tex
p13
aS'omr_bubbles.tex'
p14
atp15
Rp16
sVsynctex
p17
I01
s.