(dp0
Vengine
p1
Vxelatex
p2
sVpackages
p3
c__builtin__
set
p4
((lp5
Vgraphicx
p6
atp7
Rp8
sVfiles_with_guttermarks
p9
g4
((lp10
V/Users/digaspero/Documents/Didattica/Fondamenti_Gorizia/Esami/images/./omr_instructions.tex
p11
aS'omr_instructions.tex'
p12
atp13
Rp14
sVsynctex
p15
I01
s.